target datalayout = "e-m:e-p270:32:32-p271:32:32-p272:64:64-i64:64-i128:128-f80:128-n8:16:32:64-S128"
target triple = "x86_64-pc-linux-gnu"

; Function Attrs: mustprogress uwtable
define noundef zeroext i1 @_ZN7rocksdb28PartitionedFilterBlockReader14PrefixMayMatchERKNS_5SliceEPS2_PNS_10GetContextEPNS_23BlockCacheLookupContextERKNS_11ReadOptionsE(ptr noundef nonnull align 8 dereferenceable(120) %0, ptr noundef nonnull align 8 dereferenceable(16) %1, ptr noundef %2, ptr noundef %3, ptr noundef %4, ptr noundef nonnull align 8 dereferenceable(168) %5) unnamed_addr #6 align 2 {
  %7 = alloca ptr, align 8
  %8 = alloca ptr, align 8
  %9 = alloca ptr, align 8
  %10 = alloca ptr, align 8
  %11 = alloca ptr, align 8
  %12 = alloca ptr, align 8
  %13 = alloca { i64, i64 }, align 8
  store ptr %0, ptr %7, align 8, !tbaa !153
  store ptr %1, ptr %8, align 8, !tbaa !10
  store ptr %2, ptr %9, align 8, !tbaa !10
  store ptr %3, ptr %10, align 8, !tbaa !186
  store ptr %4, ptr %11, align 8, !tbaa !176
  store ptr %5, ptr %12, align 8, !tbaa !172
  %14 = load ptr, ptr %7, align 8
  %15 = load ptr, ptr %8, align 8, !tbaa !10
  %16 = load ptr, ptr %9, align 8, !tbaa !10
  %17 = load ptr, ptr %10, align 8, !tbaa !186
  %18 = load ptr, ptr %11, align 8, !tbaa !176
  %19 = load ptr, ptr %12, align 8, !tbaa !172
  call void @llvm.lifetime.start.p0(i64 16, ptr %13) #5
  store { i64, i64 } { i64 33, i64 0 }, ptr %13, align 8, !tbaa !144
  %20 = call noundef zeroext i1 @_ZNK7rocksdb28PartitionedFilterBlockReader8MayMatchERKNS_5SliceEPS2_PNS_10GetContextEPNS_23BlockCacheLookupContextERKNS_11ReadOptionsEMNS_21FullFilterBlockReaderEFbS3_S4_S6_S8_SB_E(ptr noundef nonnull align 8 dereferenceable(120) %14, ptr noundef nonnull align 8 dereferenceable(16) %15, ptr noundef %16, ptr noundef %17, ptr noundef %18, ptr noundef nonnull align 8 dereferenceable(168) %19, ptr noundef byval({ i64, i64 }) align 8 %13)
  call void @llvm.lifetime.end.p0(i64 16, ptr %13) #5
  ret i1 %20
}