; Function Attrs: mustprogress uwtable
define noundef zeroext i1 @_ZN7rocksdb28PartitionedFilterBlockReader14PrefixMayMatchERKNS_5SliceEPS2_PNS_10GetContextEPNS_23BlockCacheLookupContextERKNS_11ReadOptionsE(ptr noundef nonnull align 8 dereferenceable(120) %0, ptr noundef nonnull align 8 dereferenceable(16) %1, ptr noundef %2, ptr noundef %3, ptr noundef %4, ptr noundef nonnull align 8 dereferenceable(168) %5) unnamed_addr #3 align 2 {
  %7 = alloca { i64, i64 }, align 8
  call void @llvm.lifetime.start.p0(i64 16, ptr nonnull %7) #22
  store i64 33, ptr %7, align 8, !tbaa !69
  %.fca.1.gep = getelementptr inbounds nuw i8, ptr %7, i64 8
  store i64 0, ptr %.fca.1.gep, align 8, !tbaa !69
  %8 = tail call noundef zeroext i1 @_ZNK7rocksdb28PartitionedFilterBlockReader8MayMatchERKNS_5SliceEPS2_PNS_10GetContextEPNS_23BlockCacheLookupContextERKNS_11ReadOptionsEMNS_21FullFilterBlockReaderEFbS3_S4_S6_S8_SB_E(ptr noundef nonnull align 8 dereferenceable(120) %0, ptr noundef nonnull align 8 dereferenceable(16) %1, ptr noundef %2, ptr noundef %3, ptr noundef %4, ptr noundef nonnull align 8 dereferenceable(168) %5, ptr noundef nonnull byval({ i64, i64 }) align 8 %7)
  call void @llvm.lifetime.end.p0(i64 16, ptr nonnull %7) #22
  ret i1 %8
}